target datalayout = "e-m:e-p270:32:32-p271:32:32-p272:64:64-i64:64-i128:128-f80:128-n8:16:32:64-S128"
target triple = "x86_64-pc-linux-gnu"

%struct.KDF_SCRYPT = type { ptr, ptr, ptr, i64, ptr, i64, i64, i64, i64, i64, ptr }

@.str = private unnamed_addr constant [51 x i8] c"../openssl/providers/implementations/kdfs/scrypt.c\00", align 1

; Function Attrs: nounwind uwtable
define internal void @kdf_scrypt_init(ptr noundef %0) #0 {
  %2 = alloca ptr, align 8
  store ptr %0, ptr %2, align 8, !tbaa !3
  %3 = load ptr, ptr %2, align 8, !tbaa !3
  %4 = getelementptr inbounds nuw %struct.KDF_SCRYPT, ptr %3, i32 0, i32 6
  store i64 1048576, ptr %4, align 8, !tbaa !19
  %5 = load ptr, ptr %2, align 8, !tbaa !3
  %6 = getelementptr inbounds nuw %struct.KDF_SCRYPT, ptr %5, i32 0, i32 7
  store i64 8, ptr %6, align 8, !tbaa !20
  %7 = load ptr, ptr %2, align 8, !tbaa !3
  %8 = getelementptr inbounds nuw %struct.KDF_SCRYPT, ptr %7, i32 0, i32 8
  store i64 1, ptr %8, align 8, !tbaa !21
  %9 = load ptr, ptr %2, align 8, !tbaa !3
  %10 = getelementptr inbounds nuw %struct.KDF_SCRYPT, ptr %9, i32 0, i32 9
  store i64 1074790400, ptr %10, align 8, !tbaa !22
  ret void
}

; Function Attrs: nounwind uwtable
define internal ptr @kdf_scrypt_new_inner(ptr noundef %0) #0 {
  %2 = alloca ptr, align 8
  %3 = alloca ptr, align 8
  %4 = alloca ptr, align 8
  %5 = alloca i32, align 4
  store ptr %0, ptr %3, align 8, !tbaa !31
  call void @llvm.lifetime.start.p0(i64 8, ptr %4) #5
  %6 = call i32 @ossl_prov_is_running()
  %7 = icmp ne i32 %6, 0
  br i1 %7, label %9, label %8

8:                                                ; preds = %1
  store ptr null, ptr %2, align 8
  store i32 1, ptr %5, align 4
  br label %20

9:                                                ; preds = %1
  %10 = call noalias ptr @CRYPTO_zalloc(i64 noundef 88, ptr noundef @.str, i32 noundef 65)
  store ptr %10, ptr %4, align 8, !tbaa !3
  %11 = load ptr, ptr %4, align 8, !tbaa !3
  %12 = icmp eq ptr %11, null
  br i1 %12, label %13, label %14

13:                                               ; preds = %9
  store ptr null, ptr %2, align 8
  store i32 1, ptr %5, align 4
  br label %20

14:                                               ; preds = %9
  %15 = load ptr, ptr %3, align 8, !tbaa !31
  %16 = load ptr, ptr %4, align 8, !tbaa !3
  %17 = getelementptr inbounds nuw %struct.KDF_SCRYPT, ptr %16, i32 0, i32 0
  store ptr %15, ptr %17, align 8, !tbaa !7
  %18 = load ptr, ptr %4, align 8, !tbaa !3
  call void @kdf_scrypt_init(ptr noundef %18)
  %19 = load ptr, ptr %4, align 8, !tbaa !3
  store ptr %19, ptr %2, align 8
  store i32 1, ptr %5, align 4
  br label %20

20:                                               ; preds = %14, %13, %8
  call void @llvm.lifetime.end.p0(i64 8, ptr %4) #5
  %21 = load ptr, ptr %2, align 8
  ret ptr %21
}

; Function Attrs: nounwind uwtable
define internal ptr @kdf_scrypt_new(ptr noundef %0) #0 {
  %2 = alloca ptr, align 8
  store ptr %0, ptr %2, align 8, !tbaa !3
  %3 = load ptr, ptr %2, align 8, !tbaa !3
  %4 = call ptr @ossl_prov_ctx_get0_libctx(ptr noundef %3)
  %5 = call ptr @kdf_scrypt_new_inner(ptr noundef %4)
  ret ptr %5
}