; Function Attrs: nounwind uwtable
define internal noalias ptr @kdf_scrypt_new(ptr noundef %0) #0 {
  %2 = tail call ptr @ossl_prov_ctx_get0_libctx(ptr noundef %0) #7
  %3 = tail call i32 @ossl_prov_is_running() #7
  %.not.i = icmp eq i32 %3, 0
  br i1 %.not.i, label %kdf_scrypt_new_inner.exit, label %4

4:                                                ; preds = %1
  %5 = tail call noalias ptr @CRYPTO_zalloc(i64 noundef 88, ptr noundef nonnull @.str, i32 noundef 65) #7
  %6 = icmp eq ptr %5, null
  br i1 %6, label %kdf_scrypt_new_inner.exit, label %7

7:                                                ; preds = %4
  store ptr %2, ptr %5, align 8, !tbaa !3
  %8 = getelementptr inbounds nuw i8, ptr %5, i64 48
  store i64 1048576, ptr %8, align 8, !tbaa !12
  %9 = getelementptr inbounds nuw i8, ptr %5, i64 56
  store i64 8, ptr %9, align 8, !tbaa !13
  %10 = getelementptr inbounds nuw i8, ptr %5, i64 64
  store i64 1, ptr %10, align 8, !tbaa !14
  %11 = getelementptr inbounds nuw i8, ptr %5, i64 72
  store i64 1074790400, ptr %11, align 8, !tbaa !15
  br label %kdf_scrypt_new_inner.exit

kdf_scrypt_new_inner.exit:                        ; preds = %1, %4, %7
  %.0.i = phi ptr [ %5, %7 ], [ null, %1 ], [ null, %4 ]
  ret ptr %.0.i
}